target datalayout = "e-m:e-p270:32:32-p271:32:32-p272:64:64-i64:64-i128:128-f80:128-n8:16:32:64-S128"
target triple = "x86_64-pc-linux-gnu"

; Function Attrs: nounwind uwtable
define i32 @byleng(ptr noundef %0, i32 noundef %1) #0 {
  %3 = alloca ptr, align 8
  %4 = alloca i32, align 4
  store ptr %0, ptr %3, align 8
  store i32 %1, ptr %4, align 4
  %5 = load i32, ptr %4, align 4
  %6 = add i32 %5, -1
  store i32 %6, ptr %4, align 4
  br label %7

7:                                                ; preds = %26, %2
  %8 = load ptr, ptr %3, align 8
  %9 = load i32, ptr %4, align 4
  %10 = sext i32 %9 to i64
  %11 = getelementptr inbounds i8, ptr %8, i64 %10
  %12 = load i8, ptr %11, align 1
  %13 = sext i8 %12 to i32
  %14 = icmp ne i32 %13, 0
  br i1 %14, label %15, label %23

15:                                               ; preds = %7
  %16 = load ptr, ptr %3, align 8
  %17 = load i32, ptr %4, align 4
  %18 = sext i32 %17 to i64
  %19 = getelementptr inbounds i8, ptr %16, i64 %18
  %20 = load i8, ptr %19, align 1
  %21 = sext i8 %20 to i32
  %22 = icmp eq i32 %21, 32
  br label %23

23:                                               ; preds = %15, %7
  %24 = phi i1 [ false, %7 ], [ %22, %15 ]
  br i1 %24, label %25, label %29

25:                                               ; preds = %23
  br label %26

26:                                               ; preds = %25
  %27 = load i32, ptr %4, align 4
  %28 = add i32 %27, -1
  store i32 %28, ptr %4, align 4
  br label %7, !llvm.loop !10

29:                                               ; preds = %23
  %30 = load i32, ptr %4, align 4
  %31 = add i32 %30, 1
  ret i32 %31
}