; Function Attrs: nofree norecurse nosync nounwind memory(argmem: read) uwtable
define i32 @byleng(ptr noundef readonly captures(none) %0, i32 noundef %1) local_unnamed_addr #11 {
  br label %3

3:                                                ; preds = %3, %2
  %.0.in = phi i32 [ %1, %2 ], [ %.0, %3 ]
  %.0 = add i32 %.0.in, -1
  %4 = sext i32 %.0 to i64
  %5 = getelementptr inbounds i8, ptr %0, i64 %4
  %6 = load i8, ptr %5, align 1
  %cond = icmp eq i8 %6, 32
  br i1 %cond, label %3, label %.critedge

.critedge:                                        ; preds = %3
  ret i32 %.0.in
}